(lp0
(S'cluttered_nist/train/ix1_24_1.png'
p1
cnumpy.core.multiarray
scalar
p2
(cnumpy
dtype
p3
(S'S3'
p4
I0
I1
tp5
Rp6
(I3
S'|'
p7
NNNI3
I1
I0
tp8
bS'YES'
p9
tp10
Rp11
tp12
a(S'cluttered_nist/train/ix2_32_3.png'
p13
g2
(g3
(S'S2'
p14
I0
I1
tp15
Rp16
(I3
S'|'
p17
NNNI2
I1
I0
tp18
bS'NO'
p19
tp20
Rp21
tp22
a(S'cluttered_nist/train/baseline_2_352.png'
p23
g2
(g3
(S'S2'
p24
I0
I1
tp25
Rp26
(I3
S'|'
p27
NNNI2
I1
I0
tp28
bS'NO'
p29
tp30
Rp31
tp32
a(S'cluttered_nist/train/baseline_2_131.png'
p33
g2
(g3
(S'S3'
p34
I0
I1
tp35
Rp36
(I3
S'|'
p37
NNNI3
I1
I0
tp38
bS'YES'
p39
tp40
Rp41
tp42
a(S'cluttered_nist/train/ix1_6_3.png'
p43
g2
(g3
(S'S2'
p44
I0
I1
tp45
Rp46
(I3
S'|'
p47
NNNI2
I1
I0
tp48
bS'NO'
p49
tp50
Rp51
tp52
a(S'cluttered_nist/train/ix1_46_94.png'
p53
g2
(g3
(S'S3'
p54
I0
I1
tp55
Rp56
(I3
S'|'
p57
NNNI3
I1
I0
tp58
bS'YES'
p59
tp60
Rp61
tp62
a(S'cluttered_nist/train/ix2_17_259.png'
p63
g2
(g3
(S'S3'
p64
I0
I1
tp65
Rp66
(I3
S'|'
p67
NNNI3
I1
I0
tp68
bS'YES'
p69
tp70
Rp71
tp72
a(S'cluttered_nist/train/baseline_49_6.png'
p73
g2
(g3
(S'S2'
p74
I0
I1
tp75
Rp76
(I3
S'|'
p77
NNNI2
I1
I0
tp78
bS'NO'
p79
tp80
Rp81
tp82
a(S'cluttered_nist/train/ix2_40_121.png'
p83
g2
(g3
(S'S3'
p84
I0
I1
tp85
Rp86
(I3
S'|'
p87
NNNI3
I1
I0
tp88
bS'YES'
p89
tp90
Rp91
tp92
a.